; Function Attrs: uwtable
define noundef i32 @_ZThn16_NK15FilterColorProc11filterArityEPK7QAction(ptr noundef %0, ptr noundef %1) unnamed_addr #14 align 2 {
  %3 = load ptr, ptr %0, align 8
  %4 = getelementptr inbounds i8, ptr %3, i64 144
  %5 = load ptr, ptr %4, align 8
  %6 = tail call noundef i32 %5(ptr noundef nonnull align 8 dereferenceable(64) %0, ptr noundef %1)
  %cond.i = icmp eq i32 %6, 12
  %spec.select.i = select i1 %cond.i, i32 3, i32 1
  ret i32 %spec.select.i
}